; Function Attrs: mustprogress uwtable
define void @_ZN4YAML11NodeBuilder8OnScalarERKNS_4MarkERKNSt7__cxx1112basic_stringIcSt11char_traitsIcESaIcEEEmSB_(ptr nocapture noundef nonnull align 8 dereferenceable(112) %this, ptr noundef nonnull align 4 dereferenceable(12) %mark, ptr noundef nonnull align 8 dereferenceable(32) %tag, i64 noundef %anchor, ptr noundef nonnull align 8 dereferenceable(32) %value) unnamed_addr #0 align 2 {
entry:
  %call = tail call noundef nonnull align 8 dereferenceable(72) ptr @_ZN4YAML11NodeBuilder4PushERKNS_4MarkEm(ptr noundef nonnull align 8 dereferenceable(112) %this, ptr noundef nonnull align 4 dereferenceable(12) %mark, i64 noundef %anchor)
  tail call void @_ZN4YAML6detail4node12mark_definedEv(ptr noundef nonnull align 8 dereferenceable(72) %call)
  %0 = load ptr, ptr %call, align 8
  %1 = load ptr, ptr %0, align 8
  tail call void @_ZN4YAML6detail9node_data10set_scalarERKNSt7__cxx1112basic_stringIcSt11char_traitsIcESaIcEEE(ptr noundef nonnull align 8 dereferenceable(176) %1, ptr noundef nonnull align 8 dereferenceable(32) %value)
  tail call void @_ZN4YAML6detail4node12mark_definedEv(ptr noundef nonnull align 8 dereferenceable(72) %call)
  %2 = load ptr, ptr %call, align 8
  %3 = load ptr, ptr %2, align 8
  tail call void @_ZN4YAML6detail9node_data7set_tagERKNSt7__cxx1112basic_stringIcSt11char_traitsIcESaIcEEE(ptr noundef nonnull align 8 dereferenceable(176) %3, ptr noundef nonnull align 8 dereferenceable(32) %tag)
  tail call void @_ZN4YAML11NodeBuilder3PopEv(ptr noundef nonnull align 8 dereferenceable(112) %this)
  ret void
}